; Function Attrs: mustprogress uwtable
define hidden void @_ZNK4cvc58internal6theory4bags12BagsRewriter15preRewriteEqualERKNS0_12NodeTemplateILb0EEE(ptr dead_on_unwind noalias writable writeonly sret(%"struct.cvc5::internal::theory::bags::BagsRewriteResponse") align 8 captures(none) initializes((0, 8)) %0, ptr noundef nonnull readonly align 8 captures(none) dereferenceable(96) %1, ptr noundef nonnull readonly align 8 captures(none) dereferenceable(8) %2) local_unnamed_addr #3 align 2 personality ptr @__gxx_personality_v0 {
  %4 = alloca %"class.cvc5::internal::NodeTemplate", align 8
  %5 = alloca i8, align 1
  %6 = alloca %"class.cvc5::internal::NodeTemplate", align 8
  %7 = load ptr, ptr %2, align 8, !tbaa !47, !noalias !731
  %8 = getelementptr inbounds nuw i8, ptr %7, i64 8
  %9 = load i64, ptr %8, align 8, !noalias !731
  %10 = trunc i64 %9 to i32
  %11 = and i32 %10, 1023
  %12 = icmp eq i32 %11, 1023
  %13 = select i1 %12, i32 -1, i32 %11
  %14 = tail call noundef i32 @_ZN4cvc58internal4kind10metaKindOfENS1_6Kind_tE(i32 noundef %13), !noalias !731
  %15 = icmp eq i32 %14, 2
  %16 = getelementptr inbounds nuw i8, ptr %7, i64 24
  %17 = zext i1 %15 to i64
  %18 = getelementptr inbounds nuw [0 x ptr], ptr %16, i64 0, i64 %17
  %19 = load ptr, ptr %18, align 8, !tbaa !38, !noalias !731
  %20 = load ptr, ptr %2, align 8, !tbaa !47, !noalias !734
  %21 = getelementptr inbounds nuw i8, ptr %20, i64 8
  %22 = load i64, ptr %21, align 8, !noalias !734
  %23 = trunc i64 %22 to i32
  %24 = and i32 %23, 1023
  %25 = icmp eq i32 %24, 1023
  %26 = select i1 %25, i32 -1, i32 %24
  %27 = tail call noundef i32 @_ZN4cvc58internal4kind10metaKindOfENS1_6Kind_tE(i32 noundef %26)
  %28 = icmp eq i32 %27, 2
  %spec.select.i.i = select i1 %28, i64 2, i64 1
  %29 = getelementptr inbounds nuw i8, ptr %20, i64 24
  %30 = getelementptr inbounds nuw [0 x ptr], ptr %29, i64 0, i64 %spec.select.i.i
  %31 = load ptr, ptr %30, align 8, !tbaa !38, !noalias !734
  %32 = icmp eq ptr %19, %31
  br i1 %32, label %33, label %68

33:                                               ; preds = %3
  %34 = getelementptr inbounds nuw i8, ptr %1, i64 8
  %35 = load ptr, ptr %34, align 8, !tbaa !17
  call void @llvm.lifetime.start.p0(i64 1, ptr nonnull %5) #21
  store i8 1, ptr %5, align 1, !tbaa !74
  call void @_ZN4cvc58internal11NodeManager7mkConstIbEENS0_12NodeTemplateILb1EEERKT_(ptr dead_on_unwind nonnull writable sret(%"class.cvc5::internal::NodeTemplate") align 8 %4, ptr noundef nonnull align 8 dereferenceable(3560) %35, ptr noundef nonnull align 1 dereferenceable(1) %5)
  %36 = load ptr, ptr %4, align 8, !tbaa !6
  store ptr %36, ptr %0, align 8, !tbaa !6
  %37 = load i64, ptr %36, align 8
  %38 = lshr i64 %37, 40
  %39 = trunc nuw nsw i64 %38 to i32
  %40 = and i32 %39, 1048575
  %41 = icmp samesign ult i32 %40, 1048574
  br i1 %41, label %42, label %47, !prof !12

42:                                               ; preds = %33
  %43 = add i64 %37, 1099511627776
  %44 = and i64 %43, 1152920405095219200
  %45 = and i64 %37, -1152920405095219201
  %46 = or disjoint i64 %44, %45
  store i64 %46, ptr %36, align 8
  br label %51

47:                                               ; preds = %33
  %48 = icmp eq i32 %40, 1048574
  br i1 %48, label %49, label %51, !prof !13

49:                                               ; preds = %47
  %50 = or i64 %37, 1152920405095219200
  store i64 %50, ptr %36, align 8
  invoke void @_ZN4cvc58internal4expr9NodeValue20markRefCountMaxedOutEv(ptr noundef nonnull align 8 dereferenceable(24) %36)
          to label %51 unwind label %66

51:                                               ; preds = %47, %42, %49
  %52 = getelementptr inbounds nuw i8, ptr %0, i64 8
  store i32 20, ptr %52, align 8, !tbaa !14
  %53 = load ptr, ptr %4, align 8, !tbaa !6
  %54 = load i64, ptr %53, align 8
  %55 = and i64 %54, 1152920405095219200
  %.not.i.i = icmp eq i64 %55, 1152920405095219200
  br i1 %.not.i.i, label %_ZN4cvc58internal12NodeTemplateILb1EED2Ev.exit, label %56, !prof !13

56:                                               ; preds = %51
  %57 = add i64 %54, 1152920405095219200
  %58 = and i64 %57, 1152920405095219200
  %59 = and i64 %54, -1152920405095219201
  %60 = or disjoint i64 %58, %59
  store i64 %60, ptr %53, align 8
  %61 = icmp eq i64 %58, 0
  br i1 %61, label %62, label %_ZN4cvc58internal12NodeTemplateILb1EED2Ev.exit, !prof !13

62:                                               ; preds = %56
  invoke void @_ZN4cvc58internal4expr9NodeValue15markForDeletionEv(ptr noundef nonnull align 8 dereferenceable(24) %53)
          to label %_ZN4cvc58internal12NodeTemplateILb1EED2Ev.exit unwind label %63

63:                                               ; preds = %62
  %64 = landingpad { ptr, i32 }
          catch ptr null
  %65 = extractvalue { ptr, i32 } %64, 0
  call void @__clang_call_terminate(ptr %65) #23
  unreachable

_ZN4cvc58internal12NodeTemplateILb1EED2Ev.exit:   ; preds = %51, %56, %62
  call void @llvm.lifetime.end.p0(i64 1, ptr nonnull %5) #21
  br label %_ZN4cvc58internal12NodeTemplateILb1EED2Ev.exit10

66:                                               ; preds = %49
  %67 = landingpad { ptr, i32 }
          cleanup
  call void @_ZN4cvc58internal12NodeTemplateILb1EED2Ev(ptr noundef nonnull align 8 dereferenceable(8) %4) #21
  call void @llvm.lifetime.end.p0(i64 1, ptr nonnull %5) #21
  br label %114

68:                                               ; preds = %3
  %69 = load ptr, ptr %2, align 8, !tbaa !47
  store ptr %69, ptr %6, align 8, !tbaa !6
  %70 = load i64, ptr %69, align 8
  %71 = lshr i64 %70, 40
  %72 = trunc nuw nsw i64 %71 to i32
  %73 = and i32 %72, 1048575
  %74 = icmp samesign ult i32 %73, 1048574
  br i1 %74, label %75, label %80, !prof !12

75:                                               ; preds = %68
  %76 = add i64 %70, 1099511627776
  %77 = and i64 %76, 1152920405095219200
  %78 = and i64 %70, -1152920405095219201
  %79 = or disjoint i64 %77, %78
  store i64 %79, ptr %69, align 8
  br label %_ZN4cvc58internal12NodeTemplateILb1EEC2ERKNS1_ILb0EEE.exit

80:                                               ; preds = %68
  %81 = icmp eq i32 %73, 1048574
  br i1 %81, label %82, label %_ZN4cvc58internal12NodeTemplateILb1EEC2ERKNS1_ILb0EEE.exit, !prof !13

82:                                               ; preds = %80
  %83 = or i64 %70, 1152920405095219200
  store i64 %83, ptr %69, align 8
  tail call void @_ZN4cvc58internal4expr9NodeValue20markRefCountMaxedOutEv(ptr noundef nonnull align 8 dereferenceable(24) %69)
  %.pre = load i64, ptr %69, align 8
  br label %_ZN4cvc58internal12NodeTemplateILb1EEC2ERKNS1_ILb0EEE.exit

_ZN4cvc58internal12NodeTemplateILb1EEC2ERKNS1_ILb0EEE.exit: ; preds = %75, %80, %82
  %84 = phi i64 [ %79, %75 ], [ %70, %80 ], [ %.pre, %82 ]
  store ptr %69, ptr %0, align 8, !tbaa !6
  %85 = lshr i64 %84, 40
  %86 = trunc nuw nsw i64 %85 to i32
  %87 = and i32 %86, 1048575
  %88 = icmp samesign ult i32 %87, 1048574
  br i1 %88, label %89, label %94, !prof !12

89:                                               ; preds = %_ZN4cvc58internal12NodeTemplateILb1EEC2ERKNS1_ILb0EEE.exit
  %90 = add i64 %84, 1099511627776
  %91 = and i64 %90, 1152920405095219200
  %92 = and i64 %84, -1152920405095219201
  %93 = or disjoint i64 %91, %92
  store i64 %93, ptr %69, align 8
  br label %98

94:                                               ; preds = %_ZN4cvc58internal12NodeTemplateILb1EEC2ERKNS1_ILb0EEE.exit
  %95 = icmp eq i32 %87, 1048574
  br i1 %95, label %96, label %98, !prof !13

96:                                               ; preds = %94
  %97 = or i64 %84, 1152920405095219200
  store i64 %97, ptr %69, align 8
  invoke void @_ZN4cvc58internal4expr9NodeValue20markRefCountMaxedOutEv(ptr noundef nonnull align 8 dereferenceable(24) %69)
          to label %._crit_edge unwind label %112

._crit_edge:                                      ; preds = %96
  %.pre12 = load i64, ptr %69, align 8
  br label %98

98:                                               ; preds = %._crit_edge, %94, %89
  %99 = phi i64 [ %.pre12, %._crit_edge ], [ %84, %94 ], [ %93, %89 ]
  %100 = getelementptr inbounds nuw i8, ptr %0, i64 8
  store i32 0, ptr %100, align 8, !tbaa !14
  %101 = and i64 %99, 1152920405095219200
  %.not.i.i9 = icmp eq i64 %101, 1152920405095219200
  br i1 %.not.i.i9, label %_ZN4cvc58internal12NodeTemplateILb1EED2Ev.exit10, label %102, !prof !13

102:                                              ; preds = %98
  %103 = add i64 %99, 1152920405095219200
  %104 = and i64 %103, 1152920405095219200
  %105 = and i64 %99, -1152920405095219201
  %106 = or disjoint i64 %104, %105
  store i64 %106, ptr %69, align 8
  %107 = icmp eq i64 %104, 0
  br i1 %107, label %108, label %_ZN4cvc58internal12NodeTemplateILb1EED2Ev.exit10, !prof !13

108:                                              ; preds = %102
  invoke void @_ZN4cvc58internal4expr9NodeValue15markForDeletionEv(ptr noundef nonnull align 8 dereferenceable(24) %69)
          to label %_ZN4cvc58internal12NodeTemplateILb1EED2Ev.exit10 unwind label %109

109:                                              ; preds = %108
  %110 = landingpad { ptr, i32 }
          catch ptr null
  %111 = extractvalue { ptr, i32 } %110, 0
  tail call void @__clang_call_terminate(ptr %111) #23
  unreachable

112:                                              ; preds = %96
  %113 = landingpad { ptr, i32 }
          cleanup
  call void @_ZN4cvc58internal12NodeTemplateILb1EED2Ev(ptr noundef nonnull align 8 dereferenceable(8) %6) #21
  br label %114

_ZN4cvc58internal12NodeTemplateILb1EED2Ev.exit10: ; preds = %108, %102, %98, %_ZN4cvc58internal12NodeTemplateILb1EED2Ev.exit
  ret void

114:                                              ; preds = %112, %66
  %.pn = phi { ptr, i32 } [ %67, %66 ], [ %113, %112 ]
  resume { ptr, i32 } %.pn
}